target datalayout = "e-m:e-p270:32:32-p271:32:32-p272:64:64-i64:64-i128:128-f80:128-n8:16:32:64-S128"
target triple = "x86_64-pc-linux-gnu"

%struct.URLContext = type { ptr, ptr, ptr, ptr, i32, i32, i32, i32, %struct.AVIOInterruptCB, i64, ptr, ptr, i32 }
%struct.AVIOInterruptCB = type { ptr, ptr }
%struct.HTTPContext = type { ptr, ptr, [8192 x i8], ptr, ptr, i32, i32, i64, i32, i64, i64, i64, ptr, ptr, %struct.HTTPAuthState, %struct.HTTPAuthState, ptr, ptr, ptr, ptr, ptr, ptr, ptr, i32, i32, i32, i32, i32, i32, ptr, i32, i32, i32, ptr, ptr, i32, i64, i64, ptr, ptr, ptr, i32, %struct.z_stream_s, ptr, ptr, i32, ptr, i32, i32, i32, i32, i32, ptr, i32, ptr, i32, i32, i32, i32, i32, i64, ptr, ptr, i64, i32, i32, i32, i32 }
%struct.HTTPAuthState = type { i32, [200 x i8], %struct.DigestParams, i32 }
%struct.DigestParams = type { [300 x i8], [10 x i8], [30 x i8], [300 x i8], [10 x i8], i32 }
%struct.z_stream_s = type { ptr, i32, i64, ptr, i32, i64, ptr, ptr, ptr, ptr, ptr, i32, i64, i64 }

@.str.127 = private unnamed_addr constant [11 x i8] c"text/plain\00", align 1
@.str.128 = private unnamed_addr constant [12 x i8] c"Bad Request\00", align 1
@.str.129 = private unnamed_addr constant [10 x i8] c"Forbidden\00", align 1
@.str.130 = private unnamed_addr constant [10 x i8] c"Not Found\00", align 1
@.str.131 = private unnamed_addr constant [18 x i8] c"Too Many Requests\00", align 1
@.str.132 = private unnamed_addr constant [3 x i8] c"OK\00", align 1
@.str.133 = private unnamed_addr constant [25 x i8] c"application/octet-stream\00", align 1
@.str.134 = private unnamed_addr constant [22 x i8] c"Internal server error\00", align 1
@.str.135 = private unnamed_addr constant [71 x i8] c"HTTP/1.1 %03d %s\0D\0AContent-Type: %s\0D\0AContent-Length: %zu\0D\0A%s\0D\0A%03d %s\0D\0A\00", align 1
@.str.136 = private unnamed_addr constant [1 x i8] zeroinitializer, align 1
@.str.137 = private unnamed_addr constant [69 x i8] c"HTTP/1.1 %03d %s\0D\0AContent-Type: %s\0D\0ATransfer-Encoding: chunked\0D\0A%s\0D\0A\00", align 1
@.str.138 = private unnamed_addr constant [28 x i8] c"HTTP reply header: \0A%s----\0A\00", align 1

; Function Attrs: inlinehint nounwind uwtable
define internal i32 @ffurl_write(ptr noundef %0, ptr noundef %1, i32 noundef %2) #7 {
  %4 = alloca ptr, align 8
  %5 = alloca ptr, align 8
  %6 = alloca i32, align 4
  store ptr %0, ptr %4, align 8, !tbaa !4
  store ptr %1, ptr %5, align 8, !tbaa !17
  store i32 %2, ptr %6, align 4, !tbaa !34
  %7 = load ptr, ptr %4, align 8, !tbaa !4
  %8 = load ptr, ptr %5, align 8, !tbaa !17
  %9 = load i32, ptr %6, align 4, !tbaa !34
  %10 = call i32 @ffurl_write2(ptr noundef %7, ptr noundef %8, i32 noundef %9)
  ret i32 %10
}

; Function Attrs: nounwind uwtable
define internal i32 @http_write_reply(ptr noundef %0, i32 noundef %1) #0 {
  %3 = alloca i32, align 4
  %4 = alloca ptr, align 8
  %5 = alloca i32, align 4
  %6 = alloca i32, align 4
  %7 = alloca i32, align 4
  %8 = alloca i32, align 4
  %9 = alloca i32, align 4
  %10 = alloca ptr, align 8
  %11 = alloca ptr, align 8
  %12 = alloca ptr, align 8
  %13 = alloca [8192 x i8], align 16
  %14 = alloca i32, align 4
  store ptr %0, ptr %4, align 8, !tbaa !4
  store i32 %1, ptr %5, align 4, !tbaa !34
  call void @llvm.lifetime.start.p0(i64 4, ptr %6) #11
  call void @llvm.lifetime.start.p0(i64 4, ptr %7) #11
  store i32 0, ptr %7, align 4, !tbaa !34
  call void @llvm.lifetime.start.p0(i64 4, ptr %8) #11
  call void @llvm.lifetime.start.p0(i64 4, ptr %9) #11
  call void @llvm.lifetime.start.p0(i64 8, ptr %10) #11
  call void @llvm.lifetime.start.p0(i64 8, ptr %11) #11
  call void @llvm.lifetime.start.p0(i64 8, ptr %12) #11
  %15 = load ptr, ptr %4, align 8, !tbaa !4
  %16 = getelementptr inbounds nuw %struct.URLContext, ptr %15, i32 0, i32 2
  %17 = load ptr, ptr %16, align 8, !tbaa !9
  store ptr %17, ptr %12, align 8, !tbaa !21
  call void @llvm.lifetime.start.p0(i64 8192, ptr %13) #11
  store ptr @.str.127, ptr %11, align 8, !tbaa !17
  %18 = load i32, ptr %5, align 4, !tbaa !34
  %19 = icmp slt i32 %18, 0
  br i1 %19, label %20, label %21

20:                                               ; preds = %2
  store i32 1, ptr %7, align 4, !tbaa !34
  br label %21

21:                                               ; preds = %20, %2
  %22 = load i32, ptr %5, align 4, !tbaa !34
  switch i32 %22, label %40 [
    i32 -808465656, label %23
    i32 400, label %23
    i32 -858797304, label %24
    i32 403, label %24
    i32 -875574520, label %25
    i32 404, label %25
    i32 -959591672, label %26
    i32 429, label %26
    i32 200, label %27
    i32 -1482175992, label %39
    i32 500, label %39
  ]

23:                                               ; preds = %21, %21
  store i32 400, ptr %8, align 4, !tbaa !34
  store ptr @.str.128, ptr %10, align 8, !tbaa !17
  br label %41

24:                                               ; preds = %21, %21
  store i32 403, ptr %8, align 4, !tbaa !34
  store ptr @.str.129, ptr %10, align 8, !tbaa !17
  br label %41

25:                                               ; preds = %21, %21
  store i32 404, ptr %8, align 4, !tbaa !34
  store ptr @.str.130, ptr %10, align 8, !tbaa !17
  br label %41

26:                                               ; preds = %21, %21
  store i32 429, ptr %8, align 4, !tbaa !34
  store ptr @.str.131, ptr %10, align 8, !tbaa !17
  br label %41

27:                                               ; preds = %21
  store i32 200, ptr %8, align 4, !tbaa !34
  store ptr @.str.132, ptr %10, align 8, !tbaa !17
  %28 = load ptr, ptr %12, align 8, !tbaa !21
  %29 = getelementptr inbounds nuw %struct.HTTPContext, ptr %28, i32 0, i32 22
  %30 = load ptr, ptr %29, align 8, !tbaa !97
  %31 = icmp ne ptr %30, null
  br i1 %31, label %32, label %36

32:                                               ; preds = %27
  %33 = load ptr, ptr %12, align 8, !tbaa !21
  %34 = getelementptr inbounds nuw %struct.HTTPContext, ptr %33, i32 0, i32 22
  %35 = load ptr, ptr %34, align 8, !tbaa !97
  br label %37

36:                                               ; preds = %27
  br label %37

37:                                               ; preds = %36, %32
  %38 = phi ptr [ %35, %32 ], [ @.str.133, %36 ]
  store ptr %38, ptr %11, align 8, !tbaa !17
  br label %41

39:                                               ; preds = %21, %21
  store i32 500, ptr %8, align 4, !tbaa !34
  store ptr @.str.134, ptr %10, align 8, !tbaa !17
  br label %41

40:                                               ; preds = %21
  store i32 -22, ptr %3, align 4
  store i32 1, ptr %14, align 4
  br label %100

41:                                               ; preds = %39, %37, %26, %25, %24, %23
  %42 = load i32, ptr %7, align 4, !tbaa !34
  %43 = icmp ne i32 %42, 0
  br i1 %43, label %44, label %68

44:                                               ; preds = %41
  %45 = load ptr, ptr %12, align 8, !tbaa !21
  %46 = getelementptr inbounds nuw %struct.HTTPContext, ptr %45, i32 0, i32 25
  store i32 0, ptr %46, align 8, !tbaa !42
  %47 = getelementptr inbounds [8192 x i8], ptr %13, i64 0, i64 0
  %48 = load i32, ptr %8, align 4, !tbaa !34
  %49 = load ptr, ptr %10, align 8, !tbaa !17
  %50 = load ptr, ptr %11, align 8, !tbaa !17
  %51 = load ptr, ptr %10, align 8, !tbaa !17
  %52 = call i64 @strlen(ptr noundef %51) #12
  %53 = add i64 %52, 6
  %54 = load ptr, ptr %12, align 8, !tbaa !21
  %55 = getelementptr inbounds nuw %struct.HTTPContext, ptr %54, i32 0, i32 17
  %56 = load ptr, ptr %55, align 8, !tbaa !63
  %57 = icmp ne ptr %56, null
  br i1 %57, label %58, label %62

58:                                               ; preds = %44
  %59 = load ptr, ptr %12, align 8, !tbaa !21
  %60 = getelementptr inbounds nuw %struct.HTTPContext, ptr %59, i32 0, i32 17
  %61 = load ptr, ptr %60, align 8, !tbaa !63
  br label %63

62:                                               ; preds = %44
  br label %63

63:                                               ; preds = %62, %58
  %64 = phi ptr [ %61, %58 ], [ @.str.136, %62 ]
  %65 = load i32, ptr %8, align 4, !tbaa !34
  %66 = load ptr, ptr %10, align 8, !tbaa !17
  %67 = call i32 (ptr, i64, ptr, ...) @snprintf(ptr noundef %47, i64 noundef 8192, ptr noundef @.str.135, i32 noundef %48, ptr noundef %49, ptr noundef %50, i64 noundef %53, ptr noundef %64, i32 noundef %65, ptr noundef %66) #11
  store i32 %67, ptr %9, align 4, !tbaa !34
  br label %87

68:                                               ; preds = %41
  %69 = load ptr, ptr %12, align 8, !tbaa !21
  %70 = getelementptr inbounds nuw %struct.HTTPContext, ptr %69, i32 0, i32 25
  store i32 1, ptr %70, align 8, !tbaa !42
  %71 = getelementptr inbounds [8192 x i8], ptr %13, i64 0, i64 0
  %72 = load i32, ptr %8, align 4, !tbaa !34
  %73 = load ptr, ptr %10, align 8, !tbaa !17
  %74 = load ptr, ptr %11, align 8, !tbaa !17
  %75 = load ptr, ptr %12, align 8, !tbaa !21
  %76 = getelementptr inbounds nuw %struct.HTTPContext, ptr %75, i32 0, i32 17
  %77 = load ptr, ptr %76, align 8, !tbaa !63
  %78 = icmp ne ptr %77, null
  br i1 %78, label %79, label %83

79:                                               ; preds = %68
  %80 = load ptr, ptr %12, align 8, !tbaa !21
  %81 = getelementptr inbounds nuw %struct.HTTPContext, ptr %80, i32 0, i32 17
  %82 = load ptr, ptr %81, align 8, !tbaa !63
  br label %84

83:                                               ; preds = %68
  br label %84

84:                                               ; preds = %83, %79
  %85 = phi ptr [ %82, %79 ], [ @.str.136, %83 ]
  %86 = call i32 (ptr, i64, ptr, ...) @snprintf(ptr noundef %71, i64 noundef 8192, ptr noundef @.str.137, i32 noundef %72, ptr noundef %73, ptr noundef %74, ptr noundef %85) #11
  store i32 %86, ptr %9, align 4, !tbaa !34
  br label %87

87:                                               ; preds = %84, %63
  %88 = load ptr, ptr %4, align 8, !tbaa !4
  %89 = getelementptr inbounds [8192 x i8], ptr %13, i64 0, i64 0
  call void (ptr, i32, ptr, ...) @av_log(ptr noundef %88, i32 noundef 56, ptr noundef @.str.138, ptr noundef %89)
  %90 = load ptr, ptr %12, align 8, !tbaa !21
  %91 = getelementptr inbounds nuw %struct.HTTPContext, ptr %90, i32 0, i32 1
  %92 = load ptr, ptr %91, align 8, !tbaa !44
  %93 = getelementptr inbounds [8192 x i8], ptr %13, i64 0, i64 0
  %94 = load i32, ptr %9, align 4, !tbaa !34
  %95 = call i32 @ffurl_write(ptr noundef %92, ptr noundef %93, i32 noundef %94)
  store i32 %95, ptr %6, align 4, !tbaa !34
  %96 = icmp slt i32 %95, 0
  br i1 %96, label %97, label %99

97:                                               ; preds = %87
  %98 = load i32, ptr %6, align 4, !tbaa !34
  store i32 %98, ptr %3, align 4
  store i32 1, ptr %14, align 4
  br label %100

99:                                               ; preds = %87
  store i32 0, ptr %3, align 4
  store i32 1, ptr %14, align 4
  br label %100

100:                                              ; preds = %99, %97, %40
  call void @llvm.lifetime.end.p0(i64 8192, ptr %13) #11
  call void @llvm.lifetime.end.p0(i64 8, ptr %12) #11
  call void @llvm.lifetime.end.p0(i64 8, ptr %11) #11
  call void @llvm.lifetime.end.p0(i64 8, ptr %10) #11
  call void @llvm.lifetime.end.p0(i64 4, ptr %9) #11
  call void @llvm.lifetime.end.p0(i64 4, ptr %8) #11
  call void @llvm.lifetime.end.p0(i64 4, ptr %7) #11
  call void @llvm.lifetime.end.p0(i64 4, ptr %6) #11
  %101 = load i32, ptr %3, align 4
  ret i32 %101
}