; Function Attrs: nounwind uwtable
define internal fastcc range(i32 -2147483648, 1) i32 @http_write_reply(ptr noundef %0, i32 noundef %1) unnamed_addr #2 {
  %3 = alloca [8192 x i8], align 16
  %4 = getelementptr inbounds nuw i8, ptr %0, i64 16
  %5 = load ptr, ptr %4, align 8, !tbaa !4
  call void @llvm.lifetime.start.p0(i64 8192, ptr nonnull %3) #15
  %6 = icmp sgt i32 %1, -1
  switch i32 %1, label %30 [
    i32 -808465656, label %13
    i32 400, label %13
    i32 -858797304, label %7
    i32 403, label %7
    i32 -875574520, label %8
    i32 404, label %8
    i32 -959591672, label %9
    i32 429, label %9
    i32 200, label %.thread
    i32 -1482175992, label %12
    i32 500, label %12
  ]

7:                                                ; preds = %2, %2
  br label %13

8:                                                ; preds = %2, %2
  br label %13

9:                                                ; preds = %2, %2
  br label %13

.thread:                                          ; preds = %2
  %10 = getelementptr inbounds nuw i8, ptr %5, i64 10064
  %11 = load ptr, ptr %10, align 8, !tbaa !62
  %.not = icmp eq ptr %11, null
  %spec.select = select i1 %.not, ptr @.str.133, ptr %11
  br label %21

12:                                               ; preds = %2, %2
  br label %13

13:                                               ; preds = %2, %2, %12, %9, %8, %7
  %.028 = phi i32 [ 500, %12 ], [ 429, %9 ], [ 404, %8 ], [ 403, %7 ], [ 400, %2 ], [ 400, %2 ]
  %.026 = phi ptr [ @.str.134, %12 ], [ @.str.131, %9 ], [ @.str.130, %8 ], [ @.str.129, %7 ], [ @.str.128, %2 ], [ @.str.128, %2 ]
  br i1 %6, label %21, label %14

14:                                               ; preds = %13
  %15 = getelementptr inbounds nuw i8, ptr %5, i64 10080
  store i32 0, ptr %15, align 8, !tbaa !35
  %16 = tail call i64 @strlen(ptr noundef nonnull dereferenceable(1) %.026) #16
  %17 = add i64 %16, 6
  %18 = getelementptr inbounds nuw i8, ptr %5, i64 10024
  %19 = load ptr, ptr %18, align 8, !tbaa !55
  %.not36 = icmp eq ptr %19, null
  %spec.select37 = select i1 %.not36, ptr @.str.136, ptr %19
  %20 = call i32 (ptr, i64, ptr, ...) @snprintf(ptr noundef nonnull dereferenceable(1) %3, i64 noundef 8192, ptr noundef nonnull @.str.135, i32 noundef %.028, ptr noundef nonnull %.026, ptr noundef nonnull @.str.127, i64 noundef %17, ptr noundef nonnull %spec.select37, i32 noundef %.028, ptr noundef nonnull %.026) #15
  br label %26

21:                                               ; preds = %.thread, %13
  %.02544 = phi ptr [ %spec.select, %.thread ], [ @.str.127, %13 ]
  %.02643 = phi ptr [ @.str.132, %.thread ], [ %.026, %13 ]
  %.02842 = phi i32 [ 200, %.thread ], [ %.028, %13 ]
  %22 = getelementptr inbounds nuw i8, ptr %5, i64 10080
  store i32 1, ptr %22, align 8, !tbaa !35
  %23 = getelementptr inbounds nuw i8, ptr %5, i64 10024
  %24 = load ptr, ptr %23, align 8, !tbaa !55
  %.not35 = icmp eq ptr %24, null
  %spec.select38 = select i1 %.not35, ptr @.str.136, ptr %24
  %25 = call i32 (ptr, i64, ptr, ...) @snprintf(ptr noundef nonnull dereferenceable(1) %3, i64 noundef 8192, ptr noundef nonnull @.str.137, i32 noundef %.02842, ptr noundef nonnull %.02643, ptr noundef nonnull %.02544, ptr noundef nonnull %spec.select38) #15
  br label %26

26:                                               ; preds = %21, %14
  %.027 = phi i32 [ %20, %14 ], [ %25, %21 ]
  call void (ptr, i32, ptr, ...) @av_log(ptr noundef nonnull %0, i32 noundef 56, ptr noundef nonnull @.str.138, ptr noundef nonnull %3) #15
  %27 = getelementptr inbounds nuw i8, ptr %5, i64 8
  %28 = load ptr, ptr %27, align 8, !tbaa !37
  %29 = call i32 @ffurl_write2(ptr noundef %28, ptr noundef nonnull %3, i32 noundef %.027) #15
  %. = call i32 @llvm.smin.i32(i32 %29, i32 0)
  br label %30

30:                                               ; preds = %26, %2
  %.0 = phi i32 [ -22, %2 ], [ %., %26 ]
  call void @llvm.lifetime.end.p0(i64 8192, ptr nonnull %3) #15
  ret i32 %.0
}